target datalayout = "e-m:e-p270:32:32-p271:32:32-p272:64:64-i64:64-i128:128-f80:128-n8:16:32:64-S128"
target triple = "x86_64-pc-linux-gnu"

@.str.1 = private unnamed_addr constant [11 x i8] c"listpack.c\00", align 1
@.str.30 = private unnamed_addr constant [32 x i8] c"lpValidateNext(lp, &p, lpbytes)\00", align 1

; Function Attrs: inlinehint nounwind uwtable
define internal void @lpAssertValidEntry(ptr noundef %0, i64 noundef %1, ptr noundef %2) #6 {
  %4 = alloca ptr, align 8
  %5 = alloca i64, align 8
  %6 = alloca ptr, align 8
  store ptr %0, ptr %4, align 8, !tbaa !5
  store i64 %1, ptr %5, align 8, !tbaa !10
  store ptr %2, ptr %6, align 8, !tbaa !5
  %7 = load ptr, ptr %4, align 8, !tbaa !5
  %8 = load i64, ptr %5, align 8, !tbaa !10
  %9 = call i32 @lpValidateNext(ptr noundef %7, ptr noundef %6, i64 noundef %8)
  %10 = icmp ne i32 %9, 0
  %11 = xor i1 %10, true
  %12 = xor i1 %11, true
  %13 = zext i1 %12 to i32
  %14 = sext i32 %13 to i64
  %15 = call i64 @llvm.expect.i64(i64 %14, i64 1)
  %16 = icmp ne i64 %15, 0
  br i1 %16, label %17, label %18

17:                                               ; preds = %3
  br label %20

18:                                               ; preds = %3
  call void @_serverAssert(ptr noundef @.str.30, ptr noundef @.str.1, i32 noundef 1664)
  call void @abort() #11
  unreachable

19:                                               ; No predecessors!
  br label %20

20:                                               ; preds = %19, %17
  ret void
}

; Function Attrs: nounwind uwtable
define dso_local i64 @lpBytes(ptr noundef %0) #0 {
  %2 = alloca ptr, align 8
  store ptr %0, ptr %2, align 8, !tbaa !5
  %3 = load ptr, ptr %2, align 8, !tbaa !5
  %4 = getelementptr inbounds i8, ptr %3, i64 0
  %5 = load i8, ptr %4, align 1, !tbaa !12
  %6 = zext i8 %5 to i32
  %7 = shl i32 %6, 0
  %8 = load ptr, ptr %2, align 8, !tbaa !5
  %9 = getelementptr inbounds i8, ptr %8, i64 1
  %10 = load i8, ptr %9, align 1, !tbaa !12
  %11 = zext i8 %10 to i32
  %12 = shl i32 %11, 8
  %13 = or i32 %7, %12
  %14 = load ptr, ptr %2, align 8, !tbaa !5
  %15 = getelementptr inbounds i8, ptr %14, i64 2
  %16 = load i8, ptr %15, align 1, !tbaa !12
  %17 = zext i8 %16 to i32
  %18 = shl i32 %17, 16
  %19 = or i32 %13, %18
  %20 = load ptr, ptr %2, align 8, !tbaa !5
  %21 = getelementptr inbounds i8, ptr %20, i64 3
  %22 = load i8, ptr %21, align 1, !tbaa !12
  %23 = zext i8 %22 to i32
  %24 = shl i32 %23, 24
  %25 = or i32 %19, %24
  %26 = zext i32 %25 to i64
  ret i64 %26
}

; Function Attrs: nounwind uwtable
define dso_local ptr @lpFirst(ptr noundef %0) #0 {
  %2 = alloca ptr, align 8
  %3 = alloca ptr, align 8
  %4 = alloca ptr, align 8
  %5 = alloca i32, align 4
  store ptr %0, ptr %3, align 8, !tbaa !5
  call void @llvm.lifetime.start.p0(i64 8, ptr %4) #10
  %6 = load ptr, ptr %3, align 8, !tbaa !5
  %7 = getelementptr inbounds i8, ptr %6, i64 6
  store ptr %7, ptr %4, align 8, !tbaa !5
  %8 = load ptr, ptr %4, align 8, !tbaa !5
  %9 = getelementptr inbounds i8, ptr %8, i64 0
  %10 = load i8, ptr %9, align 1, !tbaa !12
  %11 = zext i8 %10 to i32
  %12 = icmp eq i32 %11, 255
  br i1 %12, label %13, label %14

13:                                               ; preds = %1
  store ptr null, ptr %2, align 8
  store i32 1, ptr %5, align 4
  br label %20

14:                                               ; preds = %1
  %15 = load ptr, ptr %3, align 8, !tbaa !5
  %16 = load ptr, ptr %3, align 8, !tbaa !5
  %17 = call i64 @lpBytes(ptr noundef %16)
  %18 = load ptr, ptr %4, align 8, !tbaa !5
  call void @lpAssertValidEntry(ptr noundef %15, i64 noundef %17, ptr noundef %18)
  %19 = load ptr, ptr %4, align 8, !tbaa !5
  store ptr %19, ptr %2, align 8
  store i32 1, ptr %5, align 4
  br label %20

20:                                               ; preds = %14, %13
  call void @llvm.lifetime.end.p0(i64 8, ptr %4) #10
  %21 = load ptr, ptr %2, align 8
  ret ptr %21
}

; Function Attrs: nounwind uwtable
define dso_local i64 @lpLength(ptr noundef %0) #0 {
  %2 = alloca i64, align 8
  %3 = alloca ptr, align 8
  %4 = alloca i32, align 4
  %5 = alloca i32, align 4
  %6 = alloca i32, align 4
  %7 = alloca ptr, align 8
  store ptr %0, ptr %3, align 8, !tbaa !5
  call void @llvm.lifetime.start.p0(i64 4, ptr %4) #10
  %8 = load ptr, ptr %3, align 8, !tbaa !5
  %9 = getelementptr inbounds i8, ptr %8, i64 4
  %10 = load i8, ptr %9, align 1, !tbaa !12
  %11 = zext i8 %10 to i32
  %12 = shl i32 %11, 0
  %13 = load ptr, ptr %3, align 8, !tbaa !5
  %14 = getelementptr inbounds i8, ptr %13, i64 5
  %15 = load i8, ptr %14, align 1, !tbaa !12
  %16 = zext i8 %15 to i32
  %17 = shl i32 %16, 8
  %18 = or i32 %12, %17
  store i32 %18, ptr %4, align 4, !tbaa !15
  %19 = load i32, ptr %4, align 4, !tbaa !15
  %20 = icmp ne i32 %19, 65535
  br i1 %20, label %21, label %24

21:                                               ; preds = %1
  %22 = load i32, ptr %4, align 4, !tbaa !15
  %23 = zext i32 %22 to i64
  store i64 %23, ptr %2, align 8
  store i32 1, ptr %5, align 4
  br label %57

24:                                               ; preds = %1
  call void @llvm.lifetime.start.p0(i64 4, ptr %6) #10
  store i32 0, ptr %6, align 4, !tbaa !15
  call void @llvm.lifetime.start.p0(i64 8, ptr %7) #10
  %25 = load ptr, ptr %3, align 8, !tbaa !5
  %26 = call ptr @lpFirst(ptr noundef %25)
  store ptr %26, ptr %7, align 8, !tbaa !5
  br label %27

27:                                               ; preds = %30, %24
  %28 = load ptr, ptr %7, align 8, !tbaa !5
  %29 = icmp ne ptr %28, null
  br i1 %29, label %30, label %36

30:                                               ; preds = %27
  %31 = load i32, ptr %6, align 4, !tbaa !15
  %32 = add i32 %31, 1
  store i32 %32, ptr %6, align 4, !tbaa !15
  %33 = load ptr, ptr %3, align 8, !tbaa !5
  %34 = load ptr, ptr %7, align 8, !tbaa !5
  %35 = call ptr @lpNext(ptr noundef %33, ptr noundef %34)
  store ptr %35, ptr %7, align 8, !tbaa !5
  br label %27, !llvm.loop !20

36:                                               ; preds = %27
  %37 = load i32, ptr %6, align 4, !tbaa !15
  %38 = icmp ult i32 %37, 65535
  br i1 %38, label %39, label %54

39:                                               ; preds = %36
  br label %40

40:                                               ; preds = %39
  %41 = load i32, ptr %6, align 4, !tbaa !15
  %42 = and i32 %41, 255
  %43 = trunc i32 %42 to i8
  %44 = load ptr, ptr %3, align 8, !tbaa !5
  %45 = getelementptr inbounds i8, ptr %44, i64 4
  store i8 %43, ptr %45, align 1, !tbaa !12
  %46 = load i32, ptr %6, align 4, !tbaa !15
  %47 = lshr i32 %46, 8
  %48 = and i32 %47, 255
  %49 = trunc i32 %48 to i8
  %50 = load ptr, ptr %3, align 8, !tbaa !5
  %51 = getelementptr inbounds i8, ptr %50, i64 5
  store i8 %49, ptr %51, align 1, !tbaa !12
  br label %52

52:                                               ; preds = %40
  br label %53

53:                                               ; preds = %52
  br label %54

54:                                               ; preds = %53, %36
  %55 = load i32, ptr %6, align 4, !tbaa !15
  %56 = zext i32 %55 to i64
  store i64 %56, ptr %2, align 8
  store i32 1, ptr %5, align 4
  call void @llvm.lifetime.end.p0(i64 8, ptr %7) #10
  call void @llvm.lifetime.end.p0(i64 4, ptr %6) #10
  br label %57

57:                                               ; preds = %54, %21
  call void @llvm.lifetime.end.p0(i64 4, ptr %4) #10
  %58 = load i64, ptr %2, align 8
  ret i64 %58
}