; Function Attrs: nounwind uwtable
define dso_local range(i64 0, 4294967296) i64 @lpLength(ptr noundef %0) local_unnamed_addr #3 {
  %2 = alloca ptr, align 8
  %3 = getelementptr inbounds nuw i8, ptr %0, i64 4
  %4 = load i8, ptr %3, align 1, !tbaa !5
  %5 = zext i8 %4 to i32
  %6 = getelementptr inbounds nuw i8, ptr %0, i64 5
  %7 = load i8, ptr %6, align 1, !tbaa !5
  %8 = zext i8 %7 to i32
  %9 = shl nuw nsw i32 %8, 8
  %10 = or disjoint i32 %9, %5
  %.not = icmp eq i32 %10, 65535
  br i1 %.not, label %11, label %26

11:                                               ; preds = %1
  %12 = getelementptr inbounds nuw i8, ptr %0, i64 6
  %13 = load i8, ptr %12, align 1, !tbaa !5
  %14 = icmp eq i8 %13, -1
  br i1 %14, label %._crit_edge.thread, label %15

15:                                               ; preds = %11
  %16 = load i32, ptr %0, align 1
  %17 = zext i32 %16 to i64
  call void @llvm.lifetime.start.p0(i64 8, ptr nonnull %2)
  store ptr %12, ptr %2, align 8, !tbaa !13
  %18 = call i32 @lpValidateNext(ptr noundef nonnull %0, ptr noundef nonnull %2, i64 noundef %17)
  %.not.i.i = icmp eq i32 %18, 0
  br i1 %.not.i.i, label %19, label %.lr.ph.preheader, !prof !12

19:                                               ; preds = %15
  tail call void @_serverAssert(ptr noundef nonnull @.str.30, ptr noundef nonnull @.str.1, i32 noundef 1664) #20
  tail call void @abort() #21
  unreachable

.lr.ph.preheader:                                 ; preds = %15
  call void @llvm.lifetime.end.p0(i64 8, ptr nonnull %2)
  br label %.lr.ph

.lr.ph:                                           ; preds = %.lr.ph.preheader, %.lr.ph
  %.021 = phi ptr [ %21, %.lr.ph ], [ %12, %.lr.ph.preheader ]
  %.01520 = phi i32 [ %20, %.lr.ph ], [ 0, %.lr.ph.preheader ]
  %20 = add i32 %.01520, 1
  %21 = tail call ptr @lpNext(ptr noundef nonnull %0, ptr noundef nonnull %.021)
  %.not18 = icmp eq ptr %21, null
  br i1 %.not18, label %._crit_edge, label %.lr.ph, !llvm.loop !16

._crit_edge:                                      ; preds = %.lr.ph
  %22 = icmp ult i32 %20, 65535
  br i1 %22, label %._crit_edge.thread, label %26

._crit_edge.thread:                               ; preds = %11, %._crit_edge
  %.015.lcssa25 = phi i32 [ %20, %._crit_edge ], [ 0, %11 ]
  %23 = trunc i32 %.015.lcssa25 to i8
  store i8 %23, ptr %3, align 1, !tbaa !5
  %24 = lshr i32 %.015.lcssa25, 8
  %25 = trunc nuw i32 %24 to i8
  store i8 %25, ptr %6, align 1, !tbaa !5
  br label %26

26:                                               ; preds = %._crit_edge, %._crit_edge.thread, %1
  %.016.in = phi i32 [ %10, %1 ], [ %.015.lcssa25, %._crit_edge.thread ], [ %20, %._crit_edge ]
  %.016 = zext i32 %.016.in to i64
  ret i64 %.016
}